ARM GAS  C:\Users\Ali\AppData\Local\Temp\ccTqyKUf.s 			page 1


   1              		.syntax unified
   2              		.cpu cortex-m3
   3              		.fpu softvfp
   4              		.eabi_attribute 20, 1
   5              		.eabi_attribute 21, 1
   6              		.eabi_attribute 23, 3
   7              		.eabi_attribute 24, 1
   8              		.eabi_attribute 25, 1
   9              		.eabi_attribute 26, 1
  10              		.eabi_attribute 30, 1
  11              		.eabi_attribute 34, 1
  12              		.eabi_attribute 18, 4
  13              		.thumb
  14              		.syntax unified
  15              		.file	"main.c"
  16              		.text
  17              	.Ltext0:
  18              		.cfi_sections	.debug_frame
  19              		.section	.text.main,"ax",%progbits
  20              		.align	2
  21              		.global	main
  22              		.thumb
  23              		.thumb_func
  24              		.type	main, %function
  25              	main:
  26              	.LFB63:
  27              		.file 1 "main.c"
   1:main.c        **** /* ========================================
   2:main.c        ****  *
   3:main.c        ****  * Copyright YOUR COMPANY, THE YEAR
   4:main.c        ****  * All Rights Reserved
   5:main.c        ****  * UNPUBLISHED, LICENSED SOFTWARE.
   6:main.c        ****  *
   7:main.c        ****  * CONFIDENTIAL AND PROPRIETARY INFORMATION
   8:main.c        ****  * WHICH IS THE PROPERTY OF your company.
   9:main.c        ****  *
  10:main.c        ****  * ========================================
  11:main.c        **** */
  12:main.c        **** #include "project.h"
  13:main.c        **** 
  14:main.c        **** CY_ISR_PROTO(ISR_UART_rx_handler);
  15:main.c        **** void handleByteReceived(uint8_t byteReceived);
  16:main.c        **** void decreaseSpeed(void);
  17:main.c        **** void increaseSpeed(void);
  18:main.c        **** void driveForwards(void);
  19:main.c        **** void driveBackwards(void);
  20:main.c        **** void stop(void);
  21:main.c        **** 
  22:main.c        **** int main(void)
  23:main.c        **** {
  28              		.loc 1 23 0
  29              		.cfi_startproc
  30              		@ Volatile: function does not return.
  31              		@ args = 0, pretend = 0, frame = 0
  32              		@ frame_needed = 0, uses_anonymous_args = 0
  33 0000 08B5     		push	{r3, lr}
  34              		.cfi_def_cfa_offset 8
ARM GAS  C:\Users\Ali\AppData\Local\Temp\ccTqyKUf.s 			page 2


  35              		.cfi_offset 3, -8
  36              		.cfi_offset 14, -4
  24:main.c        ****     CyGlobalIntEnable; /* Enable global interrupts. */
  37              		.loc 1 24 0
  38              		.syntax unified
  39              	@ 24 "main.c" 1
  40 0002 62B6     		CPSIE   i
  41              	@ 0 "" 2
  25:main.c        **** 
  26:main.c        ****     /* Place your initialization/startup code here (e.g. MyInst_Start()) */
  27:main.c        ****     isr_uart_rx_StartEx(ISR_UART_rx_handler);
  42              		.loc 1 27 0
  43              		.thumb
  44              		.syntax unified
  45 0004 0C48     		ldr	r0, .L4
  46 0006 FFF7FEFF 		bl	isr_uart_rx_StartEx
  47              	.LVL0:
  28:main.c        ****     UART_1_Start();
  48              		.loc 1 28 0
  49 000a FFF7FEFF 		bl	UART_1_Start
  50              	.LVL1:
  29:main.c        ****     PWM_1_Start();
  51              		.loc 1 29 0
  52 000e FFF7FEFF 		bl	PWM_1_Start
  53              	.LVL2:
  30:main.c        ****     
  31:main.c        ****     UART_1_PutString("DC-Motor-PWM application started\r\n");
  54              		.loc 1 31 0
  55 0012 0A48     		ldr	r0, .L4+4
  56 0014 FFF7FEFF 		bl	UART_1_PutString
  57              	.LVL3:
  32:main.c        ****     UART_1_PutString("0: Stop\r\n");
  58              		.loc 1 32 0
  59 0018 0948     		ldr	r0, .L4+8
  60 001a FFF7FEFF 		bl	UART_1_PutString
  61              	.LVL4:
  33:main.c        ****     UART_1_PutString("1: Drive forwards\r\n");
  62              		.loc 1 33 0
  63 001e 0948     		ldr	r0, .L4+12
  64 0020 FFF7FEFF 		bl	UART_1_PutString
  65              	.LVL5:
  34:main.c        ****     UART_1_PutString("2: Drive backwards\r\n");
  66              		.loc 1 34 0
  67 0024 0848     		ldr	r0, .L4+16
  68 0026 FFF7FEFF 		bl	UART_1_PutString
  69              	.LVL6:
  35:main.c        ****     UART_1_PutString("q: Decrease speed\r\n");
  70              		.loc 1 35 0
  71 002a 0848     		ldr	r0, .L4+20
  72 002c FFF7FEFF 		bl	UART_1_PutString
  73              	.LVL7:
  36:main.c        ****     UART_1_PutString("w: Increase speed\r\n");
  74              		.loc 1 36 0
  75 0030 0748     		ldr	r0, .L4+24
  76 0032 FFF7FEFF 		bl	UART_1_PutString
  77              	.LVL8:
  78              	.L2:
ARM GAS  C:\Users\Ali\AppData\Local\Temp\ccTqyKUf.s 			page 3


  79 0036 FEE7     		b	.L2
  80              	.L5:
  81              		.align	2
  82              	.L4:
  83 0038 00000000 		.word	ISR_UART_rx_handler
  84 003c 00000000 		.word	.LC0
  85 0040 24000000 		.word	.LC1
  86 0044 30000000 		.word	.LC2
  87 0048 44000000 		.word	.LC3
  88 004c 5C000000 		.word	.LC4
  89 0050 70000000 		.word	.LC5
  90              		.cfi_endproc
  91              	.LFE63:
  92              		.size	main, .-main
  93              		.section	.text.decreaseSpeed,"ax",%progbits
  94              		.align	2
  95              		.global	decreaseSpeed
  96              		.thumb
  97              		.thumb_func
  98              		.type	decreaseSpeed, %function
  99              	decreaseSpeed:
 100              	.LFB66:
  37:main.c        ****     
  38:main.c        ****     
  39:main.c        **** 
  40:main.c        ****     for(;;)
  41:main.c        ****     {
  42:main.c        ****         /* Place your application code here. */
  43:main.c        ****     }
  44:main.c        **** }
  45:main.c        **** 
  46:main.c        **** CY_ISR(ISR_UART_rx_handler)
  47:main.c        **** {
  48:main.c        ****     uint8_t bytesToRead = UART_1_GetRxBufferSize();
  49:main.c        ****     while (bytesToRead > 0)
  50:main.c        ****     {
  51:main.c        ****         uint8_t byteReceived = UART_1_ReadRxData();
  52:main.c        ****         UART_1_WriteTxData(byteReceived); // echo back
  53:main.c        ****         
  54:main.c        ****         handleByteReceived(byteReceived);
  55:main.c        ****         
  56:main.c        ****         bytesToRead--;
  57:main.c        ****     }
  58:main.c        **** }
  59:main.c        **** 
  60:main.c        **** void handleByteReceived(uint8_t byteReceived)
  61:main.c        **** {
  62:main.c        ****     switch(byteReceived)
  63:main.c        ****     {
  64:main.c        ****         case 'q' :
  65:main.c        ****         {
  66:main.c        ****             decreaseSpeed();
  67:main.c        ****         }
  68:main.c        ****         break;
  69:main.c        ****         case 'w' :
  70:main.c        ****         {
  71:main.c        ****             increaseSpeed();
ARM GAS  C:\Users\Ali\AppData\Local\Temp\ccTqyKUf.s 			page 4


  72:main.c        ****         }
  73:main.c        ****         break;
  74:main.c        ****         case '1' :
  75:main.c        ****         {
  76:main.c        ****             driveForwards();
  77:main.c        ****         }
  78:main.c        ****         break;
  79:main.c        ****         case '2' :
  80:main.c        ****         {
  81:main.c        ****             driveBackwards();
  82:main.c        ****         }
  83:main.c        ****         break;
  84:main.c        ****         case '0' :
  85:main.c        ****         {
  86:main.c        ****             stop();
  87:main.c        ****             
  88:main.c        ****         }
  89:main.c        ****         break;
  90:main.c        ****         default :
  91:main.c        ****         {
  92:main.c        ****             // nothing
  93:main.c        ****         }
  94:main.c        ****         break;
  95:main.c        ****     }
  96:main.c        **** }
  97:main.c        **** 
  98:main.c        **** void decreaseSpeed()
  99:main.c        **** {
 101              		.loc 1 99 0
 102              		.cfi_startproc
 103              		@ args = 0, pretend = 0, frame = 0
 104              		@ frame_needed = 0, uses_anonymous_args = 0
 105 0000 08B5     		push	{r3, lr}
 106              		.cfi_def_cfa_offset 8
 107              		.cfi_offset 3, -8
 108              		.cfi_offset 14, -4
 100:main.c        ****     UART_1_PutString("Decreasing speed\r\n");
 109              		.loc 1 100 0
 110 0002 0548     		ldr	r0, .L8
 111 0004 FFF7FEFF 		bl	UART_1_PutString
 112              	.LVL9:
 101:main.c        ****     
 102:main.c        ****     PWM_1_WriteCompare(PWM_1_ReadCompare() - 5);
 113              		.loc 1 102 0
 114 0008 FFF7FEFF 		bl	PWM_1_ReadCompare
 115              	.LVL10:
 116 000c 0538     		subs	r0, r0, #5
 117 000e C0B2     		uxtb	r0, r0
 118 0010 FFF7FEFF 		bl	PWM_1_WriteCompare
 119              	.LVL11:
 120 0014 08BD     		pop	{r3, pc}
 121              	.L9:
 122 0016 00BF     		.align	2
 123              	.L8:
 124 0018 84000000 		.word	.LC6
 125              		.cfi_endproc
 126              	.LFE66:
ARM GAS  C:\Users\Ali\AppData\Local\Temp\ccTqyKUf.s 			page 5


 127              		.size	decreaseSpeed, .-decreaseSpeed
 128              		.section	.text.increaseSpeed,"ax",%progbits
 129              		.align	2
 130              		.global	increaseSpeed
 131              		.thumb
 132              		.thumb_func
 133              		.type	increaseSpeed, %function
 134              	increaseSpeed:
 135              	.LFB67:
 103:main.c        **** }
 104:main.c        **** 
 105:main.c        **** void increaseSpeed()
 106:main.c        **** {
 136              		.loc 1 106 0
 137              		.cfi_startproc
 138              		@ args = 0, pretend = 0, frame = 0
 139              		@ frame_needed = 0, uses_anonymous_args = 0
 140 0000 08B5     		push	{r3, lr}
 141              		.cfi_def_cfa_offset 8
 142              		.cfi_offset 3, -8
 143              		.cfi_offset 14, -4
 107:main.c        ****     UART_1_PutString("Increasing speed\r\n");
 144              		.loc 1 107 0
 145 0002 0548     		ldr	r0, .L12
 146 0004 FFF7FEFF 		bl	UART_1_PutString
 147              	.LVL12:
 108:main.c        ****     
 109:main.c        ****     PWM_1_WriteCompare(PWM_1_ReadCompare() + 5);
 148              		.loc 1 109 0
 149 0008 FFF7FEFF 		bl	PWM_1_ReadCompare
 150              	.LVL13:
 151 000c 0530     		adds	r0, r0, #5
 152 000e C0B2     		uxtb	r0, r0
 153 0010 FFF7FEFF 		bl	PWM_1_WriteCompare
 154              	.LVL14:
 155 0014 08BD     		pop	{r3, pc}
 156              	.L13:
 157 0016 00BF     		.align	2
 158              	.L12:
 159 0018 98000000 		.word	.LC7
 160              		.cfi_endproc
 161              	.LFE67:
 162              		.size	increaseSpeed, .-increaseSpeed
 163              		.section	.text.driveForwards,"ax",%progbits
 164              		.align	2
 165              		.global	driveForwards
 166              		.thumb
 167              		.thumb_func
 168              		.type	driveForwards, %function
 169              	driveForwards:
 170              	.LFB68:
 110:main.c        **** }
 111:main.c        **** 
 112:main.c        **** void driveForwards()
 113:main.c        **** {
 171              		.loc 1 113 0
 172              		.cfi_startproc
ARM GAS  C:\Users\Ali\AppData\Local\Temp\ccTqyKUf.s 			page 6


 173              		@ args = 0, pretend = 0, frame = 0
 174              		@ frame_needed = 0, uses_anonymous_args = 0
 175 0000 08B5     		push	{r3, lr}
 176              		.cfi_def_cfa_offset 8
 177              		.cfi_offset 3, -8
 178              		.cfi_offset 14, -4
 114:main.c        ****     UART_1_PutString("Set direction: forwards\r\n");        
 179              		.loc 1 114 0
 180 0002 0248     		ldr	r0, .L16
 181 0004 FFF7FEFF 		bl	UART_1_PutString
 182              	.LVL15:
 183 0008 08BD     		pop	{r3, pc}
 184              	.L17:
 185 000a 00BF     		.align	2
 186              	.L16:
 187 000c AC000000 		.word	.LC8
 188              		.cfi_endproc
 189              	.LFE68:
 190              		.size	driveForwards, .-driveForwards
 191              		.section	.text.driveBackwards,"ax",%progbits
 192              		.align	2
 193              		.global	driveBackwards
 194              		.thumb
 195              		.thumb_func
 196              		.type	driveBackwards, %function
 197              	driveBackwards:
 198              	.LFB69:
 115:main.c        **** }
 116:main.c        **** 
 117:main.c        **** void driveBackwards()
 118:main.c        **** {
 199              		.loc 1 118 0
 200              		.cfi_startproc
 201              		@ args = 0, pretend = 0, frame = 0
 202              		@ frame_needed = 0, uses_anonymous_args = 0
 203 0000 08B5     		push	{r3, lr}
 204              		.cfi_def_cfa_offset 8
 205              		.cfi_offset 3, -8
 206              		.cfi_offset 14, -4
 119:main.c        ****     UART_1_PutString("Set direction: backwards\r\n");
 207              		.loc 1 119 0
 208 0002 0248     		ldr	r0, .L20
 209 0004 FFF7FEFF 		bl	UART_1_PutString
 210              	.LVL16:
 211 0008 08BD     		pop	{r3, pc}
 212              	.L21:
 213 000a 00BF     		.align	2
 214              	.L20:
 215 000c C8000000 		.word	.LC9
 216              		.cfi_endproc
 217              	.LFE69:
 218              		.size	driveBackwards, .-driveBackwards
 219              		.section	.text.stop,"ax",%progbits
 220              		.align	2
 221              		.global	stop
 222              		.thumb
 223              		.thumb_func
ARM GAS  C:\Users\Ali\AppData\Local\Temp\ccTqyKUf.s 			page 7


 224              		.type	stop, %function
 225              	stop:
 226              	.LFB70:
 120:main.c        **** }
 121:main.c        **** 
 122:main.c        **** void stop()
 123:main.c        **** {
 227              		.loc 1 123 0
 228              		.cfi_startproc
 229              		@ args = 0, pretend = 0, frame = 0
 230              		@ frame_needed = 0, uses_anonymous_args = 0
 231 0000 08B5     		push	{r3, lr}
 232              		.cfi_def_cfa_offset 8
 233              		.cfi_offset 3, -8
 234              		.cfi_offset 14, -4
 124:main.c        ****     UART_1_PutString("Stop\r\n");
 235              		.loc 1 124 0
 236 0002 0348     		ldr	r0, .L24
 237 0004 FFF7FEFF 		bl	UART_1_PutString
 238              	.LVL17:
 125:main.c        ****     
 126:main.c        ****     PWM_1_WriteCompare(0);
 239              		.loc 1 126 0
 240 0008 0020     		movs	r0, #0
 241 000a FFF7FEFF 		bl	PWM_1_WriteCompare
 242              	.LVL18:
 243 000e 08BD     		pop	{r3, pc}
 244              	.L25:
 245              		.align	2
 246              	.L24:
 247 0010 E4000000 		.word	.LC10
 248              		.cfi_endproc
 249              	.LFE70:
 250              		.size	stop, .-stop
 251              		.section	.text.handleByteReceived,"ax",%progbits
 252              		.align	2
 253              		.global	handleByteReceived
 254              		.thumb
 255              		.thumb_func
 256              		.type	handleByteReceived, %function
 257              	handleByteReceived:
 258              	.LFB65:
  61:main.c        ****     switch(byteReceived)
 259              		.loc 1 61 0
 260              		.cfi_startproc
 261              		@ args = 0, pretend = 0, frame = 0
 262              		@ frame_needed = 0, uses_anonymous_args = 0
 263              	.LVL19:
 264 0000 08B5     		push	{r3, lr}
 265              		.cfi_def_cfa_offset 8
 266              		.cfi_offset 3, -8
 267              		.cfi_offset 14, -4
  62:main.c        ****     {
 268              		.loc 1 62 0
 269 0002 3228     		cmp	r0, #50
 270 0004 13D0     		beq	.L28
 271 0006 04D8     		bhi	.L29
ARM GAS  C:\Users\Ali\AppData\Local\Temp\ccTqyKUf.s 			page 8


 272 0008 3028     		cmp	r0, #48
 273 000a 13D0     		beq	.L30
 274 000c 3128     		cmp	r0, #49
 275 000e 0BD0     		beq	.L31
 276 0010 08BD     		pop	{r3, pc}
 277              	.L29:
 278 0012 7128     		cmp	r0, #113
 279 0014 02D0     		beq	.L32
 280 0016 7728     		cmp	r0, #119
 281 0018 03D0     		beq	.L33
 282 001a 08BD     		pop	{r3, pc}
 283              	.L32:
  66:main.c        ****         }
 284              		.loc 1 66 0
 285 001c FFF7FEFF 		bl	decreaseSpeed
 286              	.LVL20:
  68:main.c        ****         case 'w' :
 287              		.loc 1 68 0
 288 0020 08BD     		pop	{r3, pc}
 289              	.LVL21:
 290              	.L33:
  71:main.c        ****         }
 291              		.loc 1 71 0
 292 0022 FFF7FEFF 		bl	increaseSpeed
 293              	.LVL22:
  73:main.c        ****         case '1' :
 294              		.loc 1 73 0
 295 0026 08BD     		pop	{r3, pc}
 296              	.LVL23:
 297              	.L31:
  76:main.c        ****         }
 298              		.loc 1 76 0
 299 0028 FFF7FEFF 		bl	driveForwards
 300              	.LVL24:
  78:main.c        ****         case '2' :
 301              		.loc 1 78 0
 302 002c 08BD     		pop	{r3, pc}
 303              	.LVL25:
 304              	.L28:
  81:main.c        ****         }
 305              		.loc 1 81 0
 306 002e FFF7FEFF 		bl	driveBackwards
 307              	.LVL26:
  83:main.c        ****         case '0' :
 308              		.loc 1 83 0
 309 0032 08BD     		pop	{r3, pc}
 310              	.LVL27:
 311              	.L30:
  86:main.c        ****             
 312              		.loc 1 86 0
 313 0034 FFF7FEFF 		bl	stop
 314              	.LVL28:
 315 0038 08BD     		pop	{r3, pc}
 316              		.cfi_endproc
 317              	.LFE65:
 318              		.size	handleByteReceived, .-handleByteReceived
 319 003a 00BF     		.section	.text.ISR_UART_rx_handler,"ax",%progbits
ARM GAS  C:\Users\Ali\AppData\Local\Temp\ccTqyKUf.s 			page 9


 320              		.align	2
 321              		.global	ISR_UART_rx_handler
 322              		.thumb
 323              		.thumb_func
 324              		.type	ISR_UART_rx_handler, %function
 325              	ISR_UART_rx_handler:
 326              	.LFB64:
  47:main.c        ****     uint8_t bytesToRead = UART_1_GetRxBufferSize();
 327              		.loc 1 47 0
 328              		.cfi_startproc
 329              		@ args = 0, pretend = 0, frame = 0
 330              		@ frame_needed = 0, uses_anonymous_args = 0
 331 0000 38B5     		push	{r3, r4, r5, lr}
 332              		.cfi_def_cfa_offset 16
 333              		.cfi_offset 3, -16
 334              		.cfi_offset 4, -12
 335              		.cfi_offset 5, -8
 336              		.cfi_offset 14, -4
  48:main.c        ****     while (bytesToRead > 0)
 337              		.loc 1 48 0
 338 0002 FFF7FEFF 		bl	UART_1_GetRxBufferSize
 339              	.LVL29:
 340 0006 0446     		mov	r4, r0
 341              	.LVL30:
  49:main.c        ****     {
 342              		.loc 1 49 0
 343 0008 09E0     		b	.L36
 344              	.L37:
 345              	.LBB2:
  51:main.c        ****         UART_1_WriteTxData(byteReceived); // echo back
 346              		.loc 1 51 0
 347 000a FFF7FEFF 		bl	UART_1_ReadRxData
 348              	.LVL31:
 349 000e 0546     		mov	r5, r0
 350              	.LVL32:
  52:main.c        ****         
 351              		.loc 1 52 0
 352 0010 FFF7FEFF 		bl	UART_1_WriteTxData
 353              	.LVL33:
  54:main.c        ****         
 354              		.loc 1 54 0
 355 0014 2846     		mov	r0, r5
 356 0016 FFF7FEFF 		bl	handleByteReceived
 357              	.LVL34:
  56:main.c        ****     }
 358              		.loc 1 56 0
 359 001a 013C     		subs	r4, r4, #1
 360              	.LVL35:
 361 001c E4B2     		uxtb	r4, r4
 362              	.LVL36:
 363              	.L36:
 364              	.LBE2:
  49:main.c        ****     {
 365              		.loc 1 49 0
 366 001e 002C     		cmp	r4, #0
 367 0020 F3D1     		bne	.L37
  58:main.c        **** 
ARM GAS  C:\Users\Ali\AppData\Local\Temp\ccTqyKUf.s 			page 10


 368              		.loc 1 58 0
 369 0022 38BD     		pop	{r3, r4, r5, pc}
 370              		.cfi_endproc
 371              	.LFE64:
 372              		.size	ISR_UART_rx_handler, .-ISR_UART_rx_handler
 373              		.section	.rodata.str1.4,"aMS",%progbits,1
 374              		.align	2
 375              	.LC0:
 376 0000 44432D4D 		.ascii	"DC-Motor-PWM application started\015\012\000"
 376      6F746F72 
 376      2D50574D 
 376      20617070 
 376      6C696361 
 377 0023 00       		.space	1
 378              	.LC1:
 379 0024 303A2053 		.ascii	"0: Stop\015\012\000"
 379      746F700D 
 379      0A00
 380 002e 0000     		.space	2
 381              	.LC2:
 382 0030 313A2044 		.ascii	"1: Drive forwards\015\012\000"
 382      72697665 
 382      20666F72 
 382      77617264 
 382      730D0A00 
 383              	.LC3:
 384 0044 323A2044 		.ascii	"2: Drive backwards\015\012\000"
 384      72697665 
 384      20626163 
 384      6B776172 
 384      64730D0A 
 385 0059 000000   		.space	3
 386              	.LC4:
 387 005c 713A2044 		.ascii	"q: Decrease speed\015\012\000"
 387      65637265 
 387      61736520 
 387      73706565 
 387      640D0A00 
 388              	.LC5:
 389 0070 773A2049 		.ascii	"w: Increase speed\015\012\000"
 389      6E637265 
 389      61736520 
 389      73706565 
 389      640D0A00 
 390              	.LC6:
 391 0084 44656372 		.ascii	"Decreasing speed\015\012\000"
 391      65617369 
 391      6E672073 
 391      70656564 
 391      0D0A00
 392 0097 00       		.space	1
 393              	.LC7:
 394 0098 496E6372 		.ascii	"Increasing speed\015\012\000"
 394      65617369 
 394      6E672073 
 394      70656564 
 394      0D0A00
ARM GAS  C:\Users\Ali\AppData\Local\Temp\ccTqyKUf.s 			page 11


 395 00ab 00       		.space	1
 396              	.LC8:
 397 00ac 53657420 		.ascii	"Set direction: forwards\015\012\000"
 397      64697265 
 397      6374696F 
 397      6E3A2066 
 397      6F727761 
 398 00c6 0000     		.space	2
 399              	.LC9:
 400 00c8 53657420 		.ascii	"Set direction: backwards\015\012\000"
 400      64697265 
 400      6374696F 
 400      6E3A2062 
 400      61636B77 
 401 00e3 00       		.space	1
 402              	.LC10:
 403 00e4 53746F70 		.ascii	"Stop\015\012\000"
 403      0D0A00
 404              		.text
 405              	.Letext0:
 406              		.file 2 "c:\\program files (x86)\\cypress\\psoc creator\\4.2\\psoc creator\\import\\gnu\\arm\\5.4.
 407              		.file 3 "c:\\program files (x86)\\cypress\\psoc creator\\4.2\\psoc creator\\import\\gnu\\arm\\5.4.
 408              		.file 4 "Generated_Source\\PSoC5/isr_uart_rx.h"
 409              		.file 5 "Generated_Source\\PSoC5/UART_1.h"
 410              		.file 6 "Generated_Source\\PSoC5/PWM_1.h"
 411              		.file 7 "Generated_Source\\PSoC5/core_cm3.h"