ARM GAS  C:\Users\Ali\AppData\Local\Temp\ccKSSQv0.s 			page 1


   1              		.syntax unified
   2              		.cpu cortex-m3
   3              		.fpu softvfp
   4              		.eabi_attribute 20, 1
   5              		.eabi_attribute 21, 1
   6              		.eabi_attribute 23, 3
   7              		.eabi_attribute 24, 1
   8              		.eabi_attribute 25, 1
   9              		.eabi_attribute 26, 1
  10              		.eabi_attribute 30, 1
  11              		.eabi_attribute 34, 1
  12              		.eabi_attribute 18, 4
  13              		.thumb
  14              		.syntax unified
  15              		.file	"main.c"
  16              		.text
  17              	.Ltext0:
  18              		.cfi_sections	.debug_frame
  19              		.section	.text.main,"ax",%progbits
  20              		.align	2
  21              		.global	main
  22              		.thumb
  23              		.thumb_func
  24              		.type	main, %function
  25              	main:
  26              	.LFB63:
  27              		.file 1 "main.c"
   1:main.c        **** /* ========================================
   2:main.c        ****  *
   3:main.c        ****  * Copyright YOUR COMPANY, THE YEAR
   4:main.c        ****  * All Rights Reserved
   5:main.c        ****  * UNPUBLISHED, LICENSED SOFTWARE.
   6:main.c        ****  *
   7:main.c        ****  * CONFIDENTIAL AND PROPRIETARY INFORMATION
   8:main.c        ****  * WHICH IS THE PROPERTY OF your company.
   9:main.c        ****  *
  10:main.c        ****  * ========================================
  11:main.c        **** */
  12:main.c        **** #include "project.h"
  13:main.c        **** 
  14:main.c        **** CY_ISR_PROTO(ISR_UART_rx_handler);
  15:main.c        **** void handleByteReceived(uint8_t byteReceived);
  16:main.c        **** void decreaseSpeed(void);
  17:main.c        **** void increaseSpeed(void);
  18:main.c        **** void driveForwards(void);
  19:main.c        **** void driveBackwards(void);
  20:main.c        **** void stop(void);
  21:main.c        **** 
  22:main.c        **** int main(void)
  23:main.c        **** {
  28              		.loc 1 23 0
  29              		.cfi_startproc
  30              		@ Volatile: function does not return.
  31              		@ args = 0, pretend = 0, frame = 0
  32              		@ frame_needed = 0, uses_anonymous_args = 0
  33 0000 08B5     		push	{r3, lr}
  34              		.cfi_def_cfa_offset 8
ARM GAS  C:\Users\Ali\AppData\Local\Temp\ccKSSQv0.s 			page 2


  35              		.cfi_offset 3, -8
  36              		.cfi_offset 14, -4
  24:main.c        ****     CyGlobalIntEnable; /* Enable global interrupts. */
  37              		.loc 1 24 0
  38              		.syntax unified
  39              	@ 24 "main.c" 1
  40 0002 62B6     		CPSIE   i
  41              	@ 0 "" 2
  25:main.c        **** 
  26:main.c        ****     /* Place your initialization/startup code here (e.g. MyInst_Start()) */
  27:main.c        ****     isr_uart_rx_StartEx(ISR_UART_rx_handler);
  42              		.loc 1 27 0
  43              		.thumb
  44              		.syntax unified
  45 0004 0F48     		ldr	r0, .L4
  46 0006 FFF7FEFF 		bl	isr_uart_rx_StartEx
  47              	.LVL0:
  28:main.c        ****     UART_1_Start();
  48              		.loc 1 28 0
  49 000a FFF7FEFF 		bl	UART_1_Start
  50              	.LVL1:
  29:main.c        ****     PWM_1_Start();
  51              		.loc 1 29 0
  52 000e FFF7FEFF 		bl	PWM_1_Start
  53              	.LVL2:
  30:main.c        ****     
  31:main.c        ****     UART_1_PutString("DC-Motor-PWM application started\r\n");
  54              		.loc 1 31 0
  55 0012 0D48     		ldr	r0, .L4+4
  56 0014 FFF7FEFF 		bl	UART_1_PutString
  57              	.LVL3:
  32:main.c        ****     UART_1_PutString("0: Stop\r\n");
  58              		.loc 1 32 0
  59 0018 0C48     		ldr	r0, .L4+8
  60 001a FFF7FEFF 		bl	UART_1_PutString
  61              	.LVL4:
  33:main.c        ****     UART_1_PutString("1: Drive forwards\r\n");
  62              		.loc 1 33 0
  63 001e 0C48     		ldr	r0, .L4+12
  64 0020 FFF7FEFF 		bl	UART_1_PutString
  65              	.LVL5:
  34:main.c        ****     UART_1_PutString("2: Drive backwards\r\n");
  66              		.loc 1 34 0
  67 0024 0B48     		ldr	r0, .L4+16
  68 0026 FFF7FEFF 		bl	UART_1_PutString
  69              	.LVL6:
  35:main.c        ****     UART_1_PutString("q: Decrease speed\r\n");
  70              		.loc 1 35 0
  71 002a 0B48     		ldr	r0, .L4+20
  72 002c FFF7FEFF 		bl	UART_1_PutString
  73              	.LVL7:
  36:main.c        ****     UART_1_PutString("w: Increase speed\r\n");
  74              		.loc 1 36 0
  75 0030 0A48     		ldr	r0, .L4+24
  76 0032 FFF7FEFF 		bl	UART_1_PutString
  77              	.LVL8:
  37:main.c        ****     
ARM GAS  C:\Users\Ali\AppData\Local\Temp\ccKSSQv0.s 			page 3


  38:main.c        ****     Pin_Out1_Write(0xFF);
  78              		.loc 1 38 0
  79 0036 FF20     		movs	r0, #255
  80 0038 FFF7FEFF 		bl	Pin_Out1_Write
  81              	.LVL9:
  39:main.c        ****     Pin_Out2_Write(0);
  82              		.loc 1 39 0
  83 003c 0020     		movs	r0, #0
  84 003e FFF7FEFF 		bl	Pin_Out2_Write
  85              	.LVL10:
  86              	.L2:
  87 0042 FEE7     		b	.L2
  88              	.L5:
  89              		.align	2
  90              	.L4:
  91 0044 00000000 		.word	ISR_UART_rx_handler
  92 0048 00000000 		.word	.LC0
  93 004c 24000000 		.word	.LC1
  94 0050 30000000 		.word	.LC2
  95 0054 44000000 		.word	.LC3
  96 0058 5C000000 		.word	.LC4
  97 005c 70000000 		.word	.LC5
  98              		.cfi_endproc
  99              	.LFE63:
 100              		.size	main, .-main
 101              		.section	.text.decreaseSpeed,"ax",%progbits
 102              		.align	2
 103              		.global	decreaseSpeed
 104              		.thumb
 105              		.thumb_func
 106              		.type	decreaseSpeed, %function
 107              	decreaseSpeed:
 108              	.LFB66:
  40:main.c        ****        
  41:main.c        **** 
  42:main.c        ****     for(;;)
  43:main.c        ****     {
  44:main.c        ****         /* Place your application code here. */
  45:main.c        ****     }
  46:main.c        **** }
  47:main.c        **** 
  48:main.c        **** CY_ISR(ISR_UART_rx_handler)
  49:main.c        **** {
  50:main.c        ****     uint8_t bytesToRead = UART_1_GetRxBufferSize();
  51:main.c        ****     while (bytesToRead > 0)
  52:main.c        ****     {
  53:main.c        ****         uint8_t byteReceived = UART_1_ReadRxData();
  54:main.c        ****         UART_1_WriteTxData(byteReceived); // echo back
  55:main.c        ****         
  56:main.c        ****         handleByteReceived(byteReceived);
  57:main.c        ****         
  58:main.c        ****         bytesToRead--;
  59:main.c        ****     }
  60:main.c        **** }
  61:main.c        **** 
  62:main.c        **** void handleByteReceived(uint8_t byteReceived)
  63:main.c        **** {
ARM GAS  C:\Users\Ali\AppData\Local\Temp\ccKSSQv0.s 			page 4


  64:main.c        ****     switch(byteReceived)
  65:main.c        ****     {
  66:main.c        ****         case 'q' :
  67:main.c        ****         {
  68:main.c        ****             decreaseSpeed();
  69:main.c        ****         }
  70:main.c        ****         break;
  71:main.c        ****         case 'w' :
  72:main.c        ****         {
  73:main.c        ****             increaseSpeed();
  74:main.c        ****         }
  75:main.c        ****         break;
  76:main.c        ****         case '1' :
  77:main.c        ****         {
  78:main.c        ****             driveForwards();
  79:main.c        ****         }
  80:main.c        ****         break;
  81:main.c        ****         case '2' :
  82:main.c        ****         {
  83:main.c        ****             driveBackwards();
  84:main.c        ****         }
  85:main.c        ****         break;
  86:main.c        ****         case '0' :
  87:main.c        ****         {
  88:main.c        ****             stop();
  89:main.c        ****             
  90:main.c        ****         }
  91:main.c        ****         break;
  92:main.c        ****         default :
  93:main.c        ****         {
  94:main.c        ****             // nothing
  95:main.c        ****         }
  96:main.c        ****         break;
  97:main.c        ****     }
  98:main.c        **** }
  99:main.c        **** 
 100:main.c        **** void decreaseSpeed()
 101:main.c        **** {
 109              		.loc 1 101 0
 110              		.cfi_startproc
 111              		@ args = 0, pretend = 0, frame = 0
 112              		@ frame_needed = 0, uses_anonymous_args = 0
 113 0000 08B5     		push	{r3, lr}
 114              		.cfi_def_cfa_offset 8
 115              		.cfi_offset 3, -8
 116              		.cfi_offset 14, -4
 102:main.c        ****     UART_1_PutString("Decreasing speed\r\n");
 117              		.loc 1 102 0
 118 0002 0548     		ldr	r0, .L8
 119 0004 FFF7FEFF 		bl	UART_1_PutString
 120              	.LVL11:
 103:main.c        ****     
 104:main.c        ****     PWM_1_WriteCompare(PWM_1_ReadCompare() - 5);
 121              		.loc 1 104 0
 122 0008 FFF7FEFF 		bl	PWM_1_ReadCompare
 123              	.LVL12:
 124 000c 0538     		subs	r0, r0, #5
ARM GAS  C:\Users\Ali\AppData\Local\Temp\ccKSSQv0.s 			page 5


 125 000e C0B2     		uxtb	r0, r0
 126 0010 FFF7FEFF 		bl	PWM_1_WriteCompare
 127              	.LVL13:
 128 0014 08BD     		pop	{r3, pc}
 129              	.L9:
 130 0016 00BF     		.align	2
 131              	.L8:
 132 0018 84000000 		.word	.LC6
 133              		.cfi_endproc
 134              	.LFE66:
 135              		.size	decreaseSpeed, .-decreaseSpeed
 136              		.section	.text.increaseSpeed,"ax",%progbits
 137              		.align	2
 138              		.global	increaseSpeed
 139              		.thumb
 140              		.thumb_func
 141              		.type	increaseSpeed, %function
 142              	increaseSpeed:
 143              	.LFB67:
 105:main.c        **** }
 106:main.c        **** 
 107:main.c        **** void increaseSpeed()
 108:main.c        **** {
 144              		.loc 1 108 0
 145              		.cfi_startproc
 146              		@ args = 0, pretend = 0, frame = 0
 147              		@ frame_needed = 0, uses_anonymous_args = 0
 148 0000 08B5     		push	{r3, lr}
 149              		.cfi_def_cfa_offset 8
 150              		.cfi_offset 3, -8
 151              		.cfi_offset 14, -4
 109:main.c        ****     UART_1_PutString("Increasing speed\r\n");
 152              		.loc 1 109 0
 153 0002 0548     		ldr	r0, .L12
 154 0004 FFF7FEFF 		bl	UART_1_PutString
 155              	.LVL14:
 110:main.c        ****     
 111:main.c        ****     PWM_1_WriteCompare(PWM_1_ReadCompare() + 5);
 156              		.loc 1 111 0
 157 0008 FFF7FEFF 		bl	PWM_1_ReadCompare
 158              	.LVL15:
 159 000c 0530     		adds	r0, r0, #5
 160 000e C0B2     		uxtb	r0, r0
 161 0010 FFF7FEFF 		bl	PWM_1_WriteCompare
 162              	.LVL16:
 163 0014 08BD     		pop	{r3, pc}
 164              	.L13:
 165 0016 00BF     		.align	2
 166              	.L12:
 167 0018 98000000 		.word	.LC7
 168              		.cfi_endproc
 169              	.LFE67:
 170              		.size	increaseSpeed, .-increaseSpeed
 171              		.section	.text.driveForwards,"ax",%progbits
 172              		.align	2
 173              		.global	driveForwards
 174              		.thumb
ARM GAS  C:\Users\Ali\AppData\Local\Temp\ccKSSQv0.s 			page 6


 175              		.thumb_func
 176              		.type	driveForwards, %function
 177              	driveForwards:
 178              	.LFB68:
 112:main.c        **** }
 113:main.c        **** 
 114:main.c        **** void driveForwards()
 115:main.c        **** {
 179              		.loc 1 115 0
 180              		.cfi_startproc
 181              		@ args = 0, pretend = 0, frame = 0
 182              		@ frame_needed = 0, uses_anonymous_args = 0
 183 0000 08B5     		push	{r3, lr}
 184              		.cfi_def_cfa_offset 8
 185              		.cfi_offset 3, -8
 186              		.cfi_offset 14, -4
 116:main.c        ****     UART_1_PutString("Set direction: forwards\r\n");   
 187              		.loc 1 116 0
 188 0002 0548     		ldr	r0, .L16
 189 0004 FFF7FEFF 		bl	UART_1_PutString
 190              	.LVL17:
 117:main.c        ****     
 118:main.c        ****     Pin_Out1_Write(0xFF);
 191              		.loc 1 118 0
 192 0008 FF20     		movs	r0, #255
 193 000a FFF7FEFF 		bl	Pin_Out1_Write
 194              	.LVL18:
 119:main.c        ****     Pin_Out2_Write(0);
 195              		.loc 1 119 0
 196 000e 0020     		movs	r0, #0
 197 0010 FFF7FEFF 		bl	Pin_Out2_Write
 198              	.LVL19:
 199 0014 08BD     		pop	{r3, pc}
 200              	.L17:
 201 0016 00BF     		.align	2
 202              	.L16:
 203 0018 AC000000 		.word	.LC8
 204              		.cfi_endproc
 205              	.LFE68:
 206              		.size	driveForwards, .-driveForwards
 207              		.section	.text.driveBackwards,"ax",%progbits
 208              		.align	2
 209              		.global	driveBackwards
 210              		.thumb
 211              		.thumb_func
 212              		.type	driveBackwards, %function
 213              	driveBackwards:
 214              	.LFB69:
 120:main.c        **** }
 121:main.c        **** 
 122:main.c        **** void driveBackwards()
 123:main.c        **** {
 215              		.loc 1 123 0
 216              		.cfi_startproc
 217              		@ args = 0, pretend = 0, frame = 0
 218              		@ frame_needed = 0, uses_anonymous_args = 0
 219 0000 08B5     		push	{r3, lr}
ARM GAS  C:\Users\Ali\AppData\Local\Temp\ccKSSQv0.s 			page 7


 220              		.cfi_def_cfa_offset 8
 221              		.cfi_offset 3, -8
 222              		.cfi_offset 14, -4
 124:main.c        ****     UART_1_PutString("Set direction: backwards\r\n");
 223              		.loc 1 124 0
 224 0002 0548     		ldr	r0, .L20
 225 0004 FFF7FEFF 		bl	UART_1_PutString
 226              	.LVL20:
 125:main.c        ****     
 126:main.c        ****     Pin_Out1_Write(0);
 227              		.loc 1 126 0
 228 0008 0020     		movs	r0, #0
 229 000a FFF7FEFF 		bl	Pin_Out1_Write
 230              	.LVL21:
 127:main.c        ****     Pin_Out2_Write(0xFF);
 231              		.loc 1 127 0
 232 000e FF20     		movs	r0, #255
 233 0010 FFF7FEFF 		bl	Pin_Out2_Write
 234              	.LVL22:
 235 0014 08BD     		pop	{r3, pc}
 236              	.L21:
 237 0016 00BF     		.align	2
 238              	.L20:
 239 0018 C8000000 		.word	.LC9
 240              		.cfi_endproc
 241              	.LFE69:
 242              		.size	driveBackwards, .-driveBackwards
 243              		.section	.text.stop,"ax",%progbits
 244              		.align	2
 245              		.global	stop
 246              		.thumb
 247              		.thumb_func
 248              		.type	stop, %function
 249              	stop:
 250              	.LFB70:
 128:main.c        **** }
 129:main.c        **** 
 130:main.c        **** void stop()
 131:main.c        **** {
 251              		.loc 1 131 0
 252              		.cfi_startproc
 253              		@ args = 0, pretend = 0, frame = 0
 254              		@ frame_needed = 0, uses_anonymous_args = 0
 255 0000 08B5     		push	{r3, lr}
 256              		.cfi_def_cfa_offset 8
 257              		.cfi_offset 3, -8
 258              		.cfi_offset 14, -4
 132:main.c        ****     UART_1_PutString("Stop\r\n");
 259              		.loc 1 132 0
 260 0002 0348     		ldr	r0, .L24
 261 0004 FFF7FEFF 		bl	UART_1_PutString
 262              	.LVL23:
 133:main.c        ****     
 134:main.c        ****     PWM_1_WriteCompare(0);
 263              		.loc 1 134 0
 264 0008 0020     		movs	r0, #0
 265 000a FFF7FEFF 		bl	PWM_1_WriteCompare
ARM GAS  C:\Users\Ali\AppData\Local\Temp\ccKSSQv0.s 			page 8


 266              	.LVL24:
 267 000e 08BD     		pop	{r3, pc}
 268              	.L25:
 269              		.align	2
 270              	.L24:
 271 0010 E4000000 		.word	.LC10
 272              		.cfi_endproc
 273              	.LFE70:
 274              		.size	stop, .-stop
 275              		.section	.text.handleByteReceived,"ax",%progbits
 276              		.align	2
 277              		.global	handleByteReceived
 278              		.thumb
 279              		.thumb_func
 280              		.type	handleByteReceived, %function
 281              	handleByteReceived:
 282              	.LFB65:
  63:main.c        ****     switch(byteReceived)
 283              		.loc 1 63 0
 284              		.cfi_startproc
 285              		@ args = 0, pretend = 0, frame = 0
 286              		@ frame_needed = 0, uses_anonymous_args = 0
 287              	.LVL25:
 288 0000 08B5     		push	{r3, lr}
 289              		.cfi_def_cfa_offset 8
 290              		.cfi_offset 3, -8
 291              		.cfi_offset 14, -4
  64:main.c        ****     {
 292              		.loc 1 64 0
 293 0002 3228     		cmp	r0, #50
 294 0004 13D0     		beq	.L28
 295 0006 04D8     		bhi	.L29
 296 0008 3028     		cmp	r0, #48
 297 000a 13D0     		beq	.L30
 298 000c 3128     		cmp	r0, #49
 299 000e 0BD0     		beq	.L31
 300 0010 08BD     		pop	{r3, pc}
 301              	.L29:
 302 0012 7128     		cmp	r0, #113
 303 0014 02D0     		beq	.L32
 304 0016 7728     		cmp	r0, #119
 305 0018 03D0     		beq	.L33
 306 001a 08BD     		pop	{r3, pc}
 307              	.L32:
  68:main.c        ****         }
 308              		.loc 1 68 0
 309 001c FFF7FEFF 		bl	decreaseSpeed
 310              	.LVL26:
  70:main.c        ****         case 'w' :
 311              		.loc 1 70 0
 312 0020 08BD     		pop	{r3, pc}
 313              	.LVL27:
 314              	.L33:
  73:main.c        ****         }
 315              		.loc 1 73 0
 316 0022 FFF7FEFF 		bl	increaseSpeed
 317              	.LVL28:
ARM GAS  C:\Users\Ali\AppData\Local\Temp\ccKSSQv0.s 			page 9


  75:main.c        ****         case '1' :
 318              		.loc 1 75 0
 319 0026 08BD     		pop	{r3, pc}
 320              	.LVL29:
 321              	.L31:
  78:main.c        ****         }
 322              		.loc 1 78 0
 323 0028 FFF7FEFF 		bl	driveForwards
 324              	.LVL30:
  80:main.c        ****         case '2' :
 325              		.loc 1 80 0
 326 002c 08BD     		pop	{r3, pc}
 327              	.LVL31:
 328              	.L28:
  83:main.c        ****         }
 329              		.loc 1 83 0
 330 002e FFF7FEFF 		bl	driveBackwards
 331              	.LVL32:
  85:main.c        ****         case '0' :
 332              		.loc 1 85 0
 333 0032 08BD     		pop	{r3, pc}
 334              	.LVL33:
 335              	.L30:
  88:main.c        ****             
 336              		.loc 1 88 0
 337 0034 FFF7FEFF 		bl	stop
 338              	.LVL34:
 339 0038 08BD     		pop	{r3, pc}
 340              		.cfi_endproc
 341              	.LFE65:
 342              		.size	handleByteReceived, .-handleByteReceived
 343 003a 00BF     		.section	.text.ISR_UART_rx_handler,"ax",%progbits
 344              		.align	2
 345              		.global	ISR_UART_rx_handler
 346              		.thumb
 347              		.thumb_func
 348              		.type	ISR_UART_rx_handler, %function
 349              	ISR_UART_rx_handler:
 350              	.LFB64:
  49:main.c        ****     uint8_t bytesToRead = UART_1_GetRxBufferSize();
 351              		.loc 1 49 0
 352              		.cfi_startproc
 353              		@ args = 0, pretend = 0, frame = 0
 354              		@ frame_needed = 0, uses_anonymous_args = 0
 355 0000 38B5     		push	{r3, r4, r5, lr}
 356              		.cfi_def_cfa_offset 16
 357              		.cfi_offset 3, -16
 358              		.cfi_offset 4, -12
 359              		.cfi_offset 5, -8
 360              		.cfi_offset 14, -4
  50:main.c        ****     while (bytesToRead > 0)
 361              		.loc 1 50 0
 362 0002 FFF7FEFF 		bl	UART_1_GetRxBufferSize
 363              	.LVL35:
 364 0006 0446     		mov	r4, r0
 365              	.LVL36:
  51:main.c        ****     {
ARM GAS  C:\Users\Ali\AppData\Local\Temp\ccKSSQv0.s 			page 10


 366              		.loc 1 51 0
 367 0008 09E0     		b	.L36
 368              	.L37:
 369              	.LBB2:
  53:main.c        ****         UART_1_WriteTxData(byteReceived); // echo back
 370              		.loc 1 53 0
 371 000a FFF7FEFF 		bl	UART_1_ReadRxData
 372              	.LVL37:
 373 000e 0546     		mov	r5, r0
 374              	.LVL38:
  54:main.c        ****         
 375              		.loc 1 54 0
 376 0010 FFF7FEFF 		bl	UART_1_WriteTxData
 377              	.LVL39:
  56:main.c        ****         
 378              		.loc 1 56 0
 379 0014 2846     		mov	r0, r5
 380 0016 FFF7FEFF 		bl	handleByteReceived
 381              	.LVL40:
  58:main.c        ****     }
 382              		.loc 1 58 0
 383 001a 013C     		subs	r4, r4, #1
 384              	.LVL41:
 385 001c E4B2     		uxtb	r4, r4
 386              	.LVL42:
 387              	.L36:
 388              	.LBE2:
  51:main.c        ****     {
 389              		.loc 1 51 0
 390 001e 002C     		cmp	r4, #0
 391 0020 F3D1     		bne	.L37
  60:main.c        **** 
 392              		.loc 1 60 0
 393 0022 38BD     		pop	{r3, r4, r5, pc}
 394              		.cfi_endproc
 395              	.LFE64:
 396              		.size	ISR_UART_rx_handler, .-ISR_UART_rx_handler
 397              		.section	.rodata.str1.4,"aMS",%progbits,1
 398              		.align	2
 399              	.LC0:
 400 0000 44432D4D 		.ascii	"DC-Motor-PWM application started\015\012\000"
 400      6F746F72 
 400      2D50574D 
 400      20617070 
 400      6C696361 
 401 0023 00       		.space	1
 402              	.LC1:
 403 0024 303A2053 		.ascii	"0: Stop\015\012\000"
 403      746F700D 
 403      0A00
 404 002e 0000     		.space	2
 405              	.LC2:
 406 0030 313A2044 		.ascii	"1: Drive forwards\015\012\000"
 406      72697665 
 406      20666F72 
 406      77617264 
 406      730D0A00 
ARM GAS  C:\Users\Ali\AppData\Local\Temp\ccKSSQv0.s 			page 11


 407              	.LC3:
 408 0044 323A2044 		.ascii	"2: Drive backwards\015\012\000"
 408      72697665 
 408      20626163 
 408      6B776172 
 408      64730D0A 
 409 0059 000000   		.space	3
 410              	.LC4:
 411 005c 713A2044 		.ascii	"q: Decrease speed\015\012\000"
 411      65637265 
 411      61736520 
 411      73706565 
 411      640D0A00 
 412              	.LC5:
 413 0070 773A2049 		.ascii	"w: Increase speed\015\012\000"
 413      6E637265 
 413      61736520 
 413      73706565 
 413      640D0A00 
 414              	.LC6:
 415 0084 44656372 		.ascii	"Decreasing speed\015\012\000"
 415      65617369 
 415      6E672073 
 415      70656564 
 415      0D0A00
 416 0097 00       		.space	1
 417              	.LC7:
 418 0098 496E6372 		.ascii	"Increasing speed\015\012\000"
 418      65617369 
 418      6E672073 
 418      70656564 
 418      0D0A00
 419 00ab 00       		.space	1
 420              	.LC8:
 421 00ac 53657420 		.ascii	"Set direction: forwards\015\012\000"
 421      64697265 
 421      6374696F 
 421      6E3A2066 
 421      6F727761 
 422 00c6 0000     		.space	2
 423              	.LC9:
 424 00c8 53657420 		.ascii	"Set direction: backwards\015\012\000"
 424      64697265 
 424      6374696F 
 424      6E3A2062 
 424      61636B77 
 425 00e3 00       		.space	1
 426              	.LC10:
 427 00e4 53746F70 		.ascii	"Stop\015\012\000"
 427      0D0A00
 428              		.text
 429              	.Letext0:
 430              		.file 2 "c:\\program files (x86)\\cypress\\psoc creator\\4.2\\psoc creator\\import\\gnu\\arm\\5.4.
 431              		.file 3 "c:\\program files (x86)\\cypress\\psoc creator\\4.2\\psoc creator\\import\\gnu\\arm\\5.4.
 432              		.file 4 "Generated_Source\\PSoC5/isr_uart_rx.h"
 433              		.file 5 "Generated_Source\\PSoC5/UART_1.h"
 434              		.file 6 "Generated_Source\\PSoC5/PWM_1.h"
ARM GAS  C:\Users\Ali\AppData\Local\Temp\ccKSSQv0.s 			page 12


 435              		.file 7 "Generated_Source\\PSoC5/Pin_Out1.h"
 436              		.file 8 "Generated_Source\\PSoC5/Pin_Out2.h"
 437              		.file 9 "Generated_Source\\PSoC5/core_cm3.h"