ARM GAS  C:\Users\ABDALL~1\AppData\Local\Temp\ccYxGqQj.s 			page 1


   1              		.syntax unified
   2              		.cpu cortex-m3
   3              		.fpu softvfp
   4              		.eabi_attribute 20, 1
   5              		.eabi_attribute 21, 1
   6              		.eabi_attribute 23, 3
   7              		.eabi_attribute 24, 1
   8              		.eabi_attribute 25, 1
   9              		.eabi_attribute 26, 1
  10              		.eabi_attribute 30, 1
  11              		.eabi_attribute 34, 1
  12              		.eabi_attribute 18, 4
  13              		.thumb
  14              		.syntax unified
  15              		.file	"PIDControl.c"
  16              		.text
  17              	.Ltext0:
  18              		.cfi_sections	.debug_frame
  19              		.section	.text.PIDControl_init,"ax",%progbits
  20              		.align	2
  21              		.global	PIDControl_init
  22              		.thumb
  23              		.thumb_func
  24              		.type	PIDControl_init, %function
  25              	PIDControl_init:
  26              	.LFB0:
  27              		.file 1 "PIDControl.c"
   1:PIDControl.c  **** /* ========================================
   2:PIDControl.c  ****  *
   3:PIDControl.c  ****  * Copyright YOUR COMPANY, THE YEAR
   4:PIDControl.c  ****  * All Rights Reserved
   5:PIDControl.c  ****  * UNPUBLISHED, LICENSED SOFTWARE.
   6:PIDControl.c  ****  *
   7:PIDControl.c  ****  * CONFIDENTIAL AND PROPRIETARY INFORMATION
   8:PIDControl.c  ****  * WHICH IS THE PROPERTY OF your company.
   9:PIDControl.c  ****  *
  10:PIDControl.c  ****  * ========================================
  11:PIDControl.c  **** */
  12:PIDControl.c  **** #include "PIDControl.h"
  13:PIDControl.c  **** 
  14:PIDControl.c  **** static float Kp = 0;
  15:PIDControl.c  **** static float Ki = 0;
  16:PIDControl.c  **** static float Kd = 0;
  17:PIDControl.c  **** static float dt = 0;
  18:PIDControl.c  **** static float integralMax = 0;
  19:PIDControl.c  **** static float integralMin = 0;
  20:PIDControl.c  **** static volatile float setPoint = 0;
  21:PIDControl.c  **** static float integral = 0;
  22:PIDControl.c  **** static float previousError = 0;
  23:PIDControl.c  **** 
  24:PIDControl.c  **** void PIDControl_init(float _Kp, float _Ki, float _Kd, float _integralMax, float _integralMin, float
  25:PIDControl.c  **** {
  28              		.loc 1 25 0
  29              		.cfi_startproc
  30              		@ args = 8, pretend = 0, frame = 0
  31              		@ frame_needed = 0, uses_anonymous_args = 0
  32              		@ link register save eliminated.
ARM GAS  C:\Users\ABDALL~1\AppData\Local\Temp\ccYxGqQj.s 			page 2


  33              	.LVL0:
  34 0000 10B4     		push	{r4}
  35              		.cfi_def_cfa_offset 4
  36              		.cfi_offset 4, -4
  26:PIDControl.c  ****     Kp = _Kp;
  37              		.loc 1 26 0
  38 0002 054C     		ldr	r4, .L3
  39 0004 2060     		str	r0, [r4]	@ float
  27:PIDControl.c  ****     Ki = _Ki;
  40              		.loc 1 27 0
  41 0006 6160     		str	r1, [r4, #4]	@ float
  28:PIDControl.c  ****     Kd = _Kd;
  42              		.loc 1 28 0
  43 0008 A260     		str	r2, [r4, #8]	@ float
  29:PIDControl.c  ****     integralMax = _integralMax;
  44              		.loc 1 29 0
  45 000a E360     		str	r3, [r4, #12]	@ float
  30:PIDControl.c  ****     integralMin = _integralMin;
  46              		.loc 1 30 0
  47 000c 019B     		ldr	r3, [sp, #4]	@ float
  48              	.LVL1:
  49 000e 2361     		str	r3, [r4, #16]	@ float
  31:PIDControl.c  ****     dt = _dt;
  50              		.loc 1 31 0
  51 0010 029B     		ldr	r3, [sp, #8]	@ float
  52 0012 6361     		str	r3, [r4, #20]	@ float
  32:PIDControl.c  **** }
  53              		.loc 1 32 0
  54 0014 10BC     		pop	{r4}
  55              		.cfi_restore 4
  56              		.cfi_def_cfa_offset 0
  57              	.LVL2:
  58 0016 7047     		bx	lr
  59              	.L4:
  60              		.align	2
  61              	.L3:
  62 0018 00000000 		.word	.LANCHOR0
  63              		.cfi_endproc
  64              	.LFE0:
  65              		.size	PIDControl_init, .-PIDControl_init
  66              		.section	.text.PIDControl_changeSetPoint,"ax",%progbits
  67              		.align	2
  68              		.global	PIDControl_changeSetPoint
  69              		.thumb
  70              		.thumb_func
  71              		.type	PIDControl_changeSetPoint, %function
  72              	PIDControl_changeSetPoint:
  73              	.LFB1:
  33:PIDControl.c  **** 
  34:PIDControl.c  **** void PIDControl_changeSetPoint(float _setPoint)
  35:PIDControl.c  **** {
  74              		.loc 1 35 0
  75              		.cfi_startproc
  76              		@ args = 0, pretend = 0, frame = 0
  77              		@ frame_needed = 0, uses_anonymous_args = 0
  78              		@ link register save eliminated.
  79              	.LVL3:
ARM GAS  C:\Users\ABDALL~1\AppData\Local\Temp\ccYxGqQj.s 			page 3


  36:PIDControl.c  ****     setPoint = _setPoint;
  80              		.loc 1 36 0
  81 0000 014B     		ldr	r3, .L6
  82 0002 9861     		str	r0, [r3, #24]	@ float
  83 0004 7047     		bx	lr
  84              	.L7:
  85 0006 00BF     		.align	2
  86              	.L6:
  87 0008 00000000 		.word	.LANCHOR0
  88              		.cfi_endproc
  89              	.LFE1:
  90              		.size	PIDControl_changeSetPoint, .-PIDControl_changeSetPoint
  91              		.global	__aeabi_fsub
  92              		.global	__aeabi_fmul
  93              		.global	__aeabi_fadd
  94              		.global	__aeabi_fcmpgt
  95              		.global	__aeabi_fcmplt
  96              		.global	__aeabi_fdiv
  97              		.section	.text.PIDControl_doStep,"ax",%progbits
  98              		.align	2
  99              		.global	PIDControl_doStep
 100              		.thumb
 101              		.thumb_func
 102              		.type	PIDControl_doStep, %function
 103              	PIDControl_doStep:
 104              	.LFB2:
  37:PIDControl.c  **** }
  38:PIDControl.c  **** 
  39:PIDControl.c  **** float PIDControl_doStep(float systemOutput, float* proportionalPart, float* integralPart, float* de
  40:PIDControl.c  **** {
 105              		.loc 1 40 0
 106              		.cfi_startproc
 107              		@ args = 0, pretend = 0, frame = 8
 108              		@ frame_needed = 0, uses_anonymous_args = 0
 109              	.LVL4:
 110 0000 2DE9F04F 		push	{r4, r5, r6, r7, r8, r9, r10, fp, lr}
 111              		.cfi_def_cfa_offset 36
 112              		.cfi_offset 4, -36
 113              		.cfi_offset 5, -32
 114              		.cfi_offset 6, -28
 115              		.cfi_offset 7, -24
 116              		.cfi_offset 8, -20
 117              		.cfi_offset 9, -16
 118              		.cfi_offset 10, -12
 119              		.cfi_offset 11, -8
 120              		.cfi_offset 14, -4
 121 0004 83B0     		sub	sp, sp, #12
 122              		.cfi_def_cfa_offset 48
 123 0006 8A46     		mov	r10, r1
 124 0008 9146     		mov	r9, r2
 125 000a 9846     		mov	r8, r3
 126              	.LVL5:
  41:PIDControl.c  ****     float output = 0;
  42:PIDControl.c  ****     float proportional = 0;
  43:PIDControl.c  ****     float derivative = 0;
  44:PIDControl.c  ****     float currentError = 0;
  45:PIDControl.c  ****     
ARM GAS  C:\Users\ABDALL~1\AppData\Local\Temp\ccYxGqQj.s 			page 4


  46:PIDControl.c  ****     // calculate current error
  47:PIDControl.c  ****     currentError = setPoint - systemOutput;
 127              		.loc 1 47 0
 128 000c 2D4C     		ldr	r4, .L19
 129 000e A369     		ldr	r3, [r4, #24]	@ float
 130              	.LVL6:
 131 0010 0146     		mov	r1, r0
 132              	.LVL7:
 133 0012 1846     		mov	r0, r3
 134              	.LVL8:
 135 0014 FFF7FEFF 		bl	__aeabi_fsub
 136              	.LVL9:
 137 0018 0546     		mov	r5, r0
 138              	.LVL10:
  48:PIDControl.c  ****     
  49:PIDControl.c  ****     // calculate proportional part
  50:PIDControl.c  ****     proportional = currentError;
  51:PIDControl.c  ****     
  52:PIDControl.c  ****     // calculate integral part
  53:PIDControl.c  ****     integral = integral + (currentError * dt);
 139              		.loc 1 53 0
 140 001a 6669     		ldr	r6, [r4, #20]	@ float
 141 001c 3146     		mov	r1, r6
 142 001e FFF7FEFF 		bl	__aeabi_fmul
 143              	.LVL11:
 144 0022 E169     		ldr	r1, [r4, #28]	@ float
 145 0024 FFF7FEFF 		bl	__aeabi_fadd
 146              	.LVL12:
 147 0028 E061     		str	r0, [r4, #28]	@ float
  54:PIDControl.c  ****     
  55:PIDControl.c  ****     // limit the integral
  56:PIDControl.c  ****     if (integral > integralMax) integral = integralMax;
 148              		.loc 1 56 0
 149 002a E468     		ldr	r4, [r4, #12]	@ float
 150 002c 2146     		mov	r1, r4
 151 002e FFF7FEFF 		bl	__aeabi_fcmpgt
 152              	.LVL13:
 153 0032 08B1     		cbz	r0, .L9
 154              		.loc 1 56 0 is_stmt 0 discriminator 1
 155 0034 234B     		ldr	r3, .L19
 156 0036 DC61     		str	r4, [r3, #28]	@ float
 157              	.L9:
  57:PIDControl.c  ****     if (integral < integralMin) integral = integralMin;
 158              		.loc 1 57 0 is_stmt 1
 159 0038 224B     		ldr	r3, .L19
 160 003a 1C69     		ldr	r4, [r3, #16]	@ float
 161 003c 2146     		mov	r1, r4
 162 003e D869     		ldr	r0, [r3, #28]	@ float
 163 0040 FFF7FEFF 		bl	__aeabi_fcmplt
 164              	.LVL14:
 165 0044 08B1     		cbz	r0, .L11
 166              		.loc 1 57 0 is_stmt 0 discriminator 1
 167 0046 1F4B     		ldr	r3, .L19
 168 0048 DC61     		str	r4, [r3, #28]	@ float
 169              	.L11:
  58:PIDControl.c  ****     
  59:PIDControl.c  ****     // calculate derivative part
ARM GAS  C:\Users\ABDALL~1\AppData\Local\Temp\ccYxGqQj.s 			page 5


  60:PIDControl.c  ****     derivative = (currentError - previousError) / dt;
 170              		.loc 1 60 0 is_stmt 1
 171 004a 1E4C     		ldr	r4, .L19
 172 004c 216A     		ldr	r1, [r4, #32]	@ float
 173 004e 2846     		mov	r0, r5
 174 0050 FFF7FEFF 		bl	__aeabi_fsub
 175              	.LVL15:
 176 0054 3146     		mov	r1, r6
 177 0056 FFF7FEFF 		bl	__aeabi_fdiv
 178              	.LVL16:
 179 005a 8346     		mov	fp, r0
 180              	.LVL17:
  61:PIDControl.c  ****     
  62:PIDControl.c  ****     output = proportional * Kp + integral * Ki + derivative * Kd;
 181              		.loc 1 62 0
 182 005c 2168     		ldr	r1, [r4]	@ float
 183 005e 2846     		mov	r0, r5
 184              	.LVL18:
 185 0060 FFF7FEFF 		bl	__aeabi_fmul
 186              	.LVL19:
 187 0064 0746     		mov	r7, r0
 188 0066 6168     		ldr	r1, [r4, #4]	@ float
 189 0068 E069     		ldr	r0, [r4, #28]	@ float
 190 006a FFF7FEFF 		bl	__aeabi_fmul
 191              	.LVL20:
 192 006e 0646     		mov	r6, r0
 193 0070 0146     		mov	r1, r0
 194 0072 3846     		mov	r0, r7
 195 0074 FFF7FEFF 		bl	__aeabi_fadd
 196              	.LVL21:
 197 0078 0190     		str	r0, [sp, #4]	@ float
 198 007a A168     		ldr	r1, [r4, #8]	@ float
 199 007c 5846     		mov	r0, fp
 200 007e FFF7FEFF 		bl	__aeabi_fmul
 201              	.LVL22:
 202 0082 0446     		mov	r4, r0
 203 0084 0146     		mov	r1, r0
 204 0086 0198     		ldr	r0, [sp, #4]	@ float
 205 0088 FFF7FEFF 		bl	__aeabi_fadd
 206              	.LVL23:
 207 008c 8346     		mov	fp, r0
 208              	.LVL24:
  63:PIDControl.c  ****     *proportionalPart = proportional * Kp;
 209              		.loc 1 63 0
 210 008e CAF80070 		str	r7, [r10]	@ float
  64:PIDControl.c  ****     *integralPart = integral * Ki;
 211              		.loc 1 64 0
 212 0092 C9F80060 		str	r6, [r9]	@ float
  65:PIDControl.c  ****     *derivativePart = derivative * Kd;
 213              		.loc 1 65 0
 214 0096 C8F80040 		str	r4, [r8]	@ float
  66:PIDControl.c  ****     
  67:PIDControl.c  ****     if (output > 100)
 215              		.loc 1 67 0
 216 009a 0B49     		ldr	r1, .L19+4
 217 009c FFF7FEFF 		bl	__aeabi_fcmpgt
 218              	.LVL25:
ARM GAS  C:\Users\ABDALL~1\AppData\Local\Temp\ccYxGqQj.s 			page 6


 219 00a0 28B9     		cbnz	r0, .L14
  68:PIDControl.c  ****         {
  69:PIDControl.c  ****             output = 100;
  70:PIDControl.c  ****         }
  71:PIDControl.c  ****     else if (output < 0)
 220              		.loc 1 71 0
 221 00a2 0021     		movs	r1, #0
 222 00a4 5846     		mov	r0, fp
 223 00a6 FFF7FEFF 		bl	__aeabi_fcmplt
 224              	.LVL26:
 225 00aa 28B1     		cbz	r0, .L13
 226 00ac 02E0     		b	.L15
 227              	.L14:
  69:PIDControl.c  ****         }
 228              		.loc 1 69 0
 229 00ae DFF818B0 		ldr	fp, .L19+4
 230              	.LVL27:
 231 00b2 01E0     		b	.L13
 232              	.LVL28:
 233              	.L15:
  72:PIDControl.c  ****         {
  73:PIDControl.c  ****             output = 0;
 234              		.loc 1 73 0
 235 00b4 4FF0000B 		mov	fp, #0
 236              	.LVL29:
 237              	.L13:
  74:PIDControl.c  ****         }
  75:PIDControl.c  ****     
  76:PIDControl.c  ****     previousError = currentError;
 238              		.loc 1 76 0
 239 00b8 024B     		ldr	r3, .L19
 240 00ba 1D62     		str	r5, [r3, #32]	@ float
  77:PIDControl.c  ****     return output;
  78:PIDControl.c  **** }
 241              		.loc 1 78 0
 242 00bc 5846     		mov	r0, fp
 243 00be 03B0     		add	sp, sp, #12
 244              		.cfi_def_cfa_offset 36
 245              		@ sp needed
 246 00c0 BDE8F08F 		pop	{r4, r5, r6, r7, r8, r9, r10, fp, pc}
 247              	.LVL30:
 248              	.L20:
 249              		.align	2
 250              	.L19:
 251 00c4 00000000 		.word	.LANCHOR0
 252 00c8 0000C842 		.word	1120403456
 253              		.cfi_endproc
 254              	.LFE2:
 255              		.size	PIDControl_doStep, .-PIDControl_doStep
 256              		.section	.text.getSetPoint,"ax",%progbits
 257              		.align	2
 258              		.global	getSetPoint
 259              		.thumb
 260              		.thumb_func
 261              		.type	getSetPoint, %function
 262              	getSetPoint:
 263              	.LFB3:
ARM GAS  C:\Users\ABDALL~1\AppData\Local\Temp\ccYxGqQj.s 			page 7


  79:PIDControl.c  **** 
  80:PIDControl.c  **** float getSetPoint()
  81:PIDControl.c  **** {
 264              		.loc 1 81 0
 265              		.cfi_startproc
 266              		@ args = 0, pretend = 0, frame = 0
 267              		@ frame_needed = 0, uses_anonymous_args = 0
 268              		@ link register save eliminated.
  82:PIDControl.c  ****     return setPoint;
 269              		.loc 1 82 0
 270 0000 014B     		ldr	r3, .L22
 271 0002 9869     		ldr	r0, [r3, #24]	@ float
  83:PIDControl.c  **** }
 272              		.loc 1 83 0
 273 0004 7047     		bx	lr
 274              	.L23:
 275 0006 00BF     		.align	2
 276              	.L22:
 277 0008 00000000 		.word	.LANCHOR0
 278              		.cfi_endproc
 279              	.LFE3:
 280              		.size	getSetPoint, .-getSetPoint
 281              		.bss
 282              		.align	2
 283              		.set	.LANCHOR0,. + 0
 284              		.type	Kp, %object
 285              		.size	Kp, 4
 286              	Kp:
 287 0000 00000000 		.space	4
 288              		.type	Ki, %object
 289              		.size	Ki, 4
 290              	Ki:
 291 0004 00000000 		.space	4
 292              		.type	Kd, %object
 293              		.size	Kd, 4
 294              	Kd:
 295 0008 00000000 		.space	4
 296              		.type	integralMax, %object
 297              		.size	integralMax, 4
 298              	integralMax:
 299 000c 00000000 		.space	4
 300              		.type	integralMin, %object
 301              		.size	integralMin, 4
 302              	integralMin:
 303 0010 00000000 		.space	4
 304              		.type	dt, %object
 305              		.size	dt, 4
 306              	dt:
 307 0014 00000000 		.space	4
 308              		.type	setPoint, %object
 309              		.size	setPoint, 4
 310              	setPoint:
 311 0018 00000000 		.space	4
 312              		.type	integral, %object
 313              		.size	integral, 4
 314              	integral:
 315 001c 00000000 		.space	4
ARM GAS  C:\Users\ABDALL~1\AppData\Local\Temp\ccYxGqQj.s 			page 8


 316              		.type	previousError, %object
 317              		.size	previousError, 4
 318              	previousError:
 319 0020 00000000 		.space	4
 320              		.text
 321              	.Letext0: