ARM GAS  C:\Users\ABDALL~1\AppData\Local\Temp\ccsfrxYc.s 			page 1


   1              		.syntax unified
   2              		.cpu cortex-m3
   3              		.fpu softvfp
   4              		.eabi_attribute 20, 1
   5              		.eabi_attribute 21, 1
   6              		.eabi_attribute 23, 3
   7              		.eabi_attribute 24, 1
   8              		.eabi_attribute 25, 1
   9              		.eabi_attribute 26, 1
  10              		.eabi_attribute 30, 1
  11              		.eabi_attribute 34, 1
  12              		.eabi_attribute 18, 4
  13              		.thumb
  14              		.syntax unified
  15              		.file	"TempReader.c"
  16              		.text
  17              	.Ltext0:
  18              		.cfi_sections	.debug_frame
  19              		.section	.text.initComp,"ax",%progbits
  20              		.align	2
  21              		.global	initComp
  22              		.thumb
  23              		.thumb_func
  24              		.type	initComp, %function
  25              	initComp:
  26              	.LFB64:
  27              		.file 1 "TempReader.c"
   1:TempReader.c  **** #include "TempReader.h"
   2:TempReader.c  **** #include <stdio.h>
   3:TempReader.c  **** 
   4:TempReader.c  **** uint8 address = 72;
   5:TempReader.c  **** 
   6:TempReader.c  **** /* 3 variables with 8 bit */
   7:TempReader.c  **** uint8 status;
   8:TempReader.c  **** uint8 b0;
   9:TempReader.c  **** uint8 b1;
  10:TempReader.c  **** 
  11:TempReader.c  **** /* Variable with 16 bit */
  12:TempReader.c  **** uint16_t temp = 0;
  13:TempReader.c  **** 
  14:TempReader.c  **** void initComp()
  15:TempReader.c  **** {
  28              		.loc 1 15 0
  29              		.cfi_startproc
  30              		@ args = 0, pretend = 0, frame = 0
  31              		@ frame_needed = 0, uses_anonymous_args = 0
  32 0000 08B5     		push	{r3, lr}
  33              		.cfi_def_cfa_offset 8
  34              		.cfi_offset 3, -8
  35              		.cfi_offset 14, -4
  16:TempReader.c  ****     UART_1_Start(); /* Enable UART */
  36              		.loc 1 16 0
  37 0002 FFF7FEFF 		bl	UART_1_Start
  38              	.LVL0:
  17:TempReader.c  ****     I2C_1_Start(); /* Enable I2C */
  39              		.loc 1 17 0
  40 0006 FFF7FEFF 		bl	I2C_1_Start
ARM GAS  C:\Users\ABDALL~1\AppData\Local\Temp\ccsfrxYc.s 			page 2


  41              	.LVL1:
  18:TempReader.c  ****     I2C_1_EnableInt(); /* Enable I2C INT */
  42              		.loc 1 18 0
  43 000a 0122     		movs	r2, #1
  44 000c 024B     		ldr	r3, .L3
  45 000e 1A60     		str	r2, [r3]
  19:TempReader.c  ****     PWM_1_Start();
  46              		.loc 1 19 0
  47 0010 FFF7FEFF 		bl	PWM_1_Start
  48              	.LVL2:
  49 0014 08BD     		pop	{r3, pc}
  50              	.L4:
  51 0016 00BF     		.align	2
  52              	.L3:
  53 0018 00E100E0 		.word	-536813312
  54              		.cfi_endproc
  55              	.LFE64:
  56              		.size	initComp, .-initComp
  57              		.global	__aeabi_ui2f
  58              		.global	__aeabi_fmul
  59              		.section	.text.readTemp,"ax",%progbits
  60              		.align	2
  61              		.global	readTemp
  62              		.thumb
  63              		.thumb_func
  64              		.type	readTemp, %function
  65              	readTemp:
  66              	.LFB65:
  20:TempReader.c  **** }
  21:TempReader.c  **** 
  22:TempReader.c  **** float readTemp()
  23:TempReader.c  **** {
  67              		.loc 1 23 0
  68              		.cfi_startproc
  69              		@ args = 0, pretend = 0, frame = 0
  70              		@ frame_needed = 0, uses_anonymous_args = 0
  71 0000 10B5     		push	{r4, lr}
  72              		.cfi_def_cfa_offset 8
  73              		.cfi_offset 4, -8
  74              		.cfi_offset 14, -4
  24:TempReader.c  ****     
  25:TempReader.c  ****     float float_temp;
  26:TempReader.c  ****     
  27:TempReader.c  ****     status = I2C_1_MasterSendStart(address, 1);
  75              		.loc 1 27 0
  76 0002 0121     		movs	r1, #1
  77 0004 204B     		ldr	r3, .L9
  78 0006 1878     		ldrb	r0, [r3]	@ zero_extendqisi2
  79 0008 FFF7FEFF 		bl	I2C_1_MasterSendStart
  80              	.LVL3:
  81 000c 1F4B     		ldr	r3, .L9+4
  82 000e 1870     		strb	r0, [r3]
  28:TempReader.c  **** 
  29:TempReader.c  ****         if (status == I2C_1_MSTR_NO_ERROR)
  83              		.loc 1 29 0
  84 0010 80BB     		cbnz	r0, .L6
  85              	.LBB2:
ARM GAS  C:\Users\ABDALL~1\AppData\Local\Temp\ccsfrxYc.s 			page 3


  30:TempReader.c  ****         {
  31:TempReader.c  ****             b0 = I2C_1_MasterReadByte(I2C_1_ACK_DATA);
  86              		.loc 1 31 0
  87 0012 0120     		movs	r0, #1
  88 0014 FFF7FEFF 		bl	I2C_1_MasterReadByte
  89              	.LVL4:
  90 0018 1D4C     		ldr	r4, .L9+8
  91 001a 2070     		strb	r0, [r4]
  32:TempReader.c  ****             b1 = I2C_1_MasterReadByte(I2C_1_NAK_DATA);
  92              		.loc 1 32 0
  93 001c 0020     		movs	r0, #0
  94 001e FFF7FEFF 		bl	I2C_1_MasterReadByte
  95              	.LVL5:
  33:TempReader.c  **** 
  34:TempReader.c  **** 
  35:TempReader.c  ****             /* Shift b0 left by 8 - cast to 16 bit */
  36:TempReader.c  ****             uint16_t b0_tmp = (uint16_t) b0 << 8;
  96              		.loc 1 36 0
  97 0022 2378     		ldrb	r3, [r4]	@ zero_extendqisi2
  98              	.LVL6:
  37:TempReader.c  **** 
  38:TempReader.c  ****             /* Mask MSB in b1 */
  39:TempReader.c  ****             b1 = b1 & 0b10000000;
  99              		.loc 1 39 0
 100 0024 20F07F00 		bic	r0, r0, #127
 101 0028 C0B2     		uxtb	r0, r0
 102 002a 1A4A     		ldr	r2, .L9+12
 103 002c 1070     		strb	r0, [r2]
  40:TempReader.c  **** 
  41:TempReader.c  ****             /* Combine b0 and b1 and shift by 7 - to read 9 MSB*/
  42:TempReader.c  ****             temp = (b0_tmp | b1) >> 7;
 104              		.loc 1 42 0
 105 002e 40EA0320 		orr	r0, r0, r3, lsl #8
 106 0032 C009     		lsrs	r0, r0, #7
 107 0034 184B     		ldr	r3, .L9+16
 108              	.LVL7:
 109 0036 1880     		strh	r0, [r3]	@ movhi
  43:TempReader.c  **** 
  44:TempReader.c  ****             if (temp & 0b100000000)
 110              		.loc 1 44 0
 111 0038 00F48073 		and	r3, r0, #256
 112 003c 9BB2     		uxth	r3, r3
 113 003e 93B1     		cbz	r3, .L7
 114              	.LBB3:
  45:TempReader.c  ****             {
  46:TempReader.c  ****                 /* Temp is negative */
  47:TempReader.c  **** 
  48:TempReader.c  ****                 UART_1_PutString("Negative value \r\n");
 115              		.loc 1 48 0
 116 0040 1648     		ldr	r0, .L9+20
 117 0042 FFF7FEFF 		bl	UART_1_PutString
 118              	.LVL8:
  49:TempReader.c  **** 
  50:TempReader.c  ****                 /* Find Two's complement */
  51:TempReader.c  ****                 uint16_t temp_inverted = ~temp;
 119              		.loc 1 51 0
 120 0046 144B     		ldr	r3, .L9+16
ARM GAS  C:\Users\ABDALL~1\AppData\Local\Temp\ccsfrxYc.s 			page 4


 121 0048 1888     		ldrh	r0, [r3]
 122 004a C043     		mvns	r0, r0
 123              	.LVL9:
  52:TempReader.c  ****                 temp_inverted = temp_inverted & 0b0000000111111111;
 124              		.loc 1 52 0
 125 004c C0F30800 		ubfx	r0, r0, #0, #9
 126              	.LVL10:
  53:TempReader.c  ****                 temp_inverted = temp_inverted + 1;
  54:TempReader.c  **** 
  55:TempReader.c  ****                 /* Find real value by dividing by 2 - and find the negative value */
  56:TempReader.c  ****                 float_temp = -1 * (float) temp_inverted / 2;
 127              		.loc 1 56 0
 128 0050 0130     		adds	r0, r0, #1
 129              	.LVL11:
 130 0052 FFF7FEFF 		bl	__aeabi_ui2f
 131              	.LVL12:
 132 0056 00F10040 		add	r0, r0, #-2147483648
 133 005a 4FF07C51 		mov	r1, #1056964608
 134 005e FFF7FEFF 		bl	__aeabi_fmul
 135              	.LVL13:
 136 0062 0446     		mov	r4, r0
 137              	.LVL14:
 138              	.LBE3:
 139 0064 06E0     		b	.L6
 140              	.LVL15:
 141              	.L7:
  57:TempReader.c  ****             }
  58:TempReader.c  ****             else
  59:TempReader.c  ****             {
  60:TempReader.c  ****                 /* Temp is positive */
  61:TempReader.c  **** 
  62:TempReader.c  ****                 /* Find real value by dividing by 2 */
  63:TempReader.c  ****                 float_temp = (float) temp / 2;
 142              		.loc 1 63 0
 143 0066 FFF7FEFF 		bl	__aeabi_ui2f
 144              	.LVL16:
 145 006a 4FF07C51 		mov	r1, #1056964608
 146 006e FFF7FEFF 		bl	__aeabi_fmul
 147              	.LVL17:
 148 0072 0446     		mov	r4, r0
 149              	.LVL18:
 150              	.L6:
 151              	.LBE2:
  64:TempReader.c  ****             }
  65:TempReader.c  ****         }
  66:TempReader.c  **** 
  67:TempReader.c  ****         status = I2C_1_MasterSendStop();
 152              		.loc 1 67 0
 153 0074 FFF7FEFF 		bl	I2C_1_MasterSendStop
 154              	.LVL19:
 155 0078 044B     		ldr	r3, .L9+4
 156 007a 1870     		strb	r0, [r3]
  68:TempReader.c  ****         /* Delay - to register new temp */
  69:TempReader.c  ****         CyDelay(1000);
 157              		.loc 1 69 0
 158 007c 4FF47A70 		mov	r0, #1000
 159 0080 FFF7FEFF 		bl	CyDelay
ARM GAS  C:\Users\ABDALL~1\AppData\Local\Temp\ccsfrxYc.s 			page 5


 160              	.LVL20:
  70:TempReader.c  ****         
  71:TempReader.c  ****         return float_temp;
  72:TempReader.c  **** }
 161              		.loc 1 72 0
 162 0084 2046     		mov	r0, r4
 163 0086 10BD     		pop	{r4, pc}
 164              	.LVL21:
 165              	.L10:
 166              		.align	2
 167              	.L9:
 168 0088 00000000 		.word	.LANCHOR0
 169 008c 00000000 		.word	status
 170 0090 00000000 		.word	b0
 171 0094 00000000 		.word	b1
 172 0098 00000000 		.word	.LANCHOR1
 173 009c 00000000 		.word	.LC0
 174              		.cfi_endproc
 175              	.LFE65:
 176              		.size	readTemp, .-readTemp
 177              		.global	temp
 178              		.comm	b1,1,1
 179              		.comm	b0,1,1
 180              		.comm	status,1,1
 181              		.global	address
 182              		.data
 183              		.set	.LANCHOR0,. + 0
 184              		.type	address, %object
 185              		.size	address, 1
 186              	address:
 187 0000 48       		.byte	72
 188              		.section	.rodata.str1.4,"aMS",%progbits,1
 189              		.align	2
 190              	.LC0:
 191 0000 4E656761 		.ascii	"Negative value \015\012\000"
 191      74697665 
 191      2076616C 
 191      7565200D 
 191      0A00
 192              		.bss
 193              		.align	1
 194              		.set	.LANCHOR1,. + 0
 195              		.type	temp, %object
 196              		.size	temp, 2
 197              	temp:
 198 0000 0000     		.space	2
 199              		.text
 200              	.Letext0:
 201              		.file 2 "c:\\program files (x86)\\cypress\\psoc creator\\4.2\\psoc creator\\import\\gnu\\arm\\5.4.
 202              		.file 3 "c:\\program files (x86)\\cypress\\psoc creator\\4.2\\psoc creator\\import\\gnu\\arm\\5.4.
 203              		.file 4 "Generated_Source\\PSoC5/cytypes.h"
 204              		.file 5 "Generated_Source\\PSoC5/core_cm3.h"
 205              		.file 6 "Generated_Source\\PSoC5/UART_1.h"
 206              		.file 7 "Generated_Source\\PSoC5/I2C_1.h"
 207              		.file 8 "Generated_Source\\PSoC5/PWM_1.h"
 208              		.file 9 "Generated_Source\\PSoC5/CyLib.h"